(lp0
S'shuffle_match'
p1
aS'shuffle_match_ns'
p2
aS'shuffle_match_ns_noal'
p3
aS'shuffle_match_ns_noal_nosp'
p4
aS'nospace_match'
p5
aS'nospace_match_ns'
p6
aS'nospace_match_ns_noal'
p7
aS'nospace_match_ns_noal_nosp'
p8
aS'exact_match'
p9
aS'exact_match_ns'
p10
aS'exact_match_ns_noal'
p11
aS'exact_match_ns_noal_nosp'
p12
aS'comp_contained_match'
p13
aS'comp_contained_match_ns'
p14
aS'comp_contained_match_ns_noal'
p15
aS'comp_contained_match_ns_noal_nosp'
p16
aS'soundex_match'
p17
aS'soundex_match_ns'
p18
aS'soundex_match_ns_noal'
p19
aS'soundex_match_ns_noal_nosp'
p20
aS'n_chars_first'
p21
aS'n_chars_first_ns'
p22
aS'n_chars_first_ns_noal'
p23
aS'n_chars_first_ns_noal_nosp'
p24
aS'n_chars_last'
p25
aS'n_chars_last_ns'
p26
aS'n_chars_last_ns_noal'
p27
aS'n_chars_last_ns_noal_nosp'
p28
aS'perc_agreeing_words'
p29
aS'perc_agreeing_words_ns'
p30
aS'perc_agreeing_words_ns_noal'
p31
aS'perc_agreeing_words_ns_noal_nosp'
p32
aS'n_words_last'
p33
aS'n_words_last_ns'
p34
aS'n_words_last_ns_noal'
p35
aS'n_words_last_ns_noal_nosp'
p36
aS'align_words_perc'
p37
aS'align_words_perc_ns'
p38
aS'align_words_perc_ns_noal'
p39
aS'align_words_perc_ns_noal_nosp'
p40
aS'perc_same_prefixes'
p41
aS'perc_same_prefixes_ns'
p42
aS'perc_same_prefixes_ns_noal'
p43
aS'perc_same_prefixes_ns_noal_nosp'
p44
aS'same_sorted_string'
p45
aS'same_sorted_string_ns_noal'
p46
aS'same_sorted_string_ns_noal_nosp'
p47
aS'align_char_perc'
p48
aS'align_char_perc_ns'
p49
aS'align_char_perc_ns_noal'
p50
aS'align_char_perc_ns_noal_nosp'
p51
aS'n_words_first'
p52
aS'n_words_first_ns'
p53
aS'n_words_first_ns_noal'
p54
aS'n_words_first_ns_noal_nosp'
p55
aS'perc_same_suffixes'
p56
aS'perc_same_suffixes_ns'
p57
aS'perc_same_suffixes_ns_noal'
p58
aS'perc_same_suffixes_ns_noal_nosp'
p59
aS'perc_ism'
p60
aS'perc_ism_ns'
p61
aS'perc_ism_ns_noal'
p62
aS'perc_ism_ns_noal_nosp'
p63
aS'perc_laqab_nisbah'
p64
aS'perc_laqab_nisbah_ns'
p65
aS'perc_laqab_nisbah_ns_noal'
p66
aS'perc_laqab_nisbah_ns_noal_nosp'
p67
aS'jaccard_on_location'
p68
aS'last_5_chars_same'
p69
aS'same_year_month_death'
p70
aS'jaccard_on_names'
p71
aS'same_substring_lochashing'
p72
aS'jarowinkler_on_sorted'
p73
aS'days_diff_death'
p74
aS'first_5_chars_same'
p75
a.